; ModuleID = 'bench/rocksdb/original/sync_point_impl.ll'
source_filename = "bench/rocksdb/original/sync_point_impl.ll"
target datalayout = "e-m:e-p270:32:32-p271:32:32-p272:64:64-i64:64-i128:128-f80:128-n8:16:32:64-S128"
target triple = "x86_64-pc-linux-gnu"

%"class.std::vector" = type { %"struct.std::_Vector_base" }
%"struct.std::_Vector_base" = type { %"struct.std::_Vector_base<rocksdb::Slice, std::allocator<rocksdb::Slice>>::_Vector_impl" }
%"struct.std::_Vector_base<rocksdb::Slice, std::allocator<rocksdb::Slice>>::_Vector_impl" = type { %"struct.std::_Vector_base<rocksdb::Slice, std::allocator<rocksdb::Slice>>::_Vector_impl_data" }
%"struct.std::_Vector_base<rocksdb::Slice, std::allocator<rocksdb::Slice>>::_Vector_impl_data" = type { ptr, ptr, ptr }

$_ZNSt6vectorIN7rocksdb5SliceESaIS1_EED2Ev = comdat any

@_ZN7rocksdbL23kRangeTombstoneSentinelE = internal global i64 0, align 8
@_ZN7rocksdbL18empty_operand_listE = internal global %"class.std::vector" zeroinitializer, align 8
@__dso_handle = external hidden global i8
@llvm.global_ctors = appending global [1 x { i32, ptr, ptr }] [{ i32, ptr, ptr } { i32 65535, ptr @_GLOBAL__sub_I_sync_point_impl.cc, ptr null }]

; Function Attrs: mustprogress nocallback nofree nosync nounwind willreturn memory(argmem: readwrite)
declare ptr @llvm.invariant.start.p0(i64 immarg, ptr captures(none)) #0

; Function Attrs: mustprogress nounwind uwtable
define linkonce_odr void @_ZNSt6vectorIN7rocksdb5SliceESaIS1_EED2Ev(ptr noundef nonnull align 8 dereferenceable(24) %0) unnamed_addr #1 comdat align 2 personality ptr @__gxx_personality_v0 {
  %2 = load ptr, ptr %0, align 8, !tbaa !4
  %.not.i.i = icmp eq ptr %2, null
  br i1 %.not.i.i, label %_ZNSt12_Vector_baseIN7rocksdb5SliceESaIS1_EED2Ev.exit, label %3

3:                                                ; preds = %1
  %4 = getelementptr inbounds nuw i8, ptr %0, i64 16
  %5 = load ptr, ptr %4, align 8, !tbaa !10
  %6 = ptrtoint ptr %5 to i64
  %7 = ptrtoint ptr %2 to i64
  %8 = sub i64 %6, %7
  tail call void @_ZdlPvm(ptr noundef nonnull %2, i64 noundef %8) #6
  br label %_ZNSt12_Vector_baseIN7rocksdb5SliceESaIS1_EED2Ev.exit

_ZNSt12_Vector_baseIN7rocksdb5SliceESaIS1_EED2Ev.exit: ; preds = %1, %3
  ret void
}

; Function Attrs: nofree nounwind
declare i32 @__cxa_atexit(ptr, ptr, ptr) local_unnamed_addr #2

; Function Attrs: nobuiltin nounwind
declare void @_ZdlPvm(ptr noundef, i64 noundef) local_unnamed_addr #3

declare i32 @__gxx_personality_v0(...)

; Function Attrs: nofree nounwind uwtable
define internal void @_GLOBAL__sub_I_sync_point_impl.cc() #4 section ".text.startup" {
  store i64 -241, ptr @_ZN7rocksdbL23kRangeTombstoneSentinelE, align 8, !tbaa !11
  %1 = tail call ptr @llvm.invariant.start.p0(i64 8, ptr nonnull @_ZN7rocksdbL23kRangeTombstoneSentinelE)
  tail call void @llvm.memset.p0.i64(ptr noundef nonnull align 8 dereferenceable(24) @_ZN7rocksdbL18empty_operand_listE, i8 0, i64 24, i1 false)
  %2 = tail call i32 @__cxa_atexit(ptr nonnull @_ZNSt6vectorIN7rocksdb5SliceESaIS1_EED2Ev, ptr nonnull @_ZN7rocksdbL18empty_operand_listE, ptr nonnull @__dso_handle) #7
  ret void
}

; Function Attrs: nocallback nofree nounwind willreturn memory(argmem: write)
declare void @llvm.memset.p0.i64(ptr writeonly captures(none), i8, i64, i1 immarg) #5


!llvm.module.flags = !{!0, !1, !2, !3}

!0 = !{i32 1, !"wchar_size", i32 4}
!1 = !{i32 8, !"PIC Level", i32 2}
!2 = !{i32 7, !"uwtable", i32 2}
!3 = !{i32 7, !"frame-pointer", i32 1}
!4 = !{!5, !6, i64 0}
!5 = !{!"_ZTSNSt12_Vector_baseIN7rocksdb5SliceESaIS1_EE17_Vector_impl_dataE", !6, i64 0, !6, i64 8, !6, i64 16}
!6 = !{!"p1 _ZTSN7rocksdb5SliceE", !7, i64 0}
!7 = !{!"any pointer", !8, i64 0}
!8 = !{!"omnipotent char", !9, i64 0}
!9 = !{!"Simple C++ TBAA"}
!10 = !{!5, !6, i64 16}
!11 = !{!12, !12, i64 0}
!12 = !{!"long", !8, i64 0}
